target datalayout = "e-m:e-p270:32:32-p271:32:32-p272:64:64-i64:64-i128:128-f80:128-n8:16:32:64-S128"
target triple = "x86_64-pc-linux-gnu"

%struct.v3_ext_method = type { i32, i32, ptr, ptr, ptr, ptr, ptr, ptr, ptr, ptr, ptr, ptr, ptr, ptr }

@.str.3 = private unnamed_addr constant [37 x i8] c"../openssl/test/x509_internal_test.c\00", align 1
@.str.4 = private unnamed_addr constant [25 x i8] c"Extensions out of order!\00", align 1
@.str.5 = private unnamed_addr constant [8 x i8] c"%d : %s\00", align 1

; Function Attrs: nounwind uwtable
define internal i32 @test_standard_exts() #0 {
  %1 = alloca i64, align 8
  %2 = alloca i32, align 4
  %3 = alloca i32, align 4
  %4 = alloca ptr, align 8
  call void @llvm.lifetime.start.p0(i64 8, ptr %1) #3
  call void @llvm.lifetime.start.p0(i64 4, ptr %2) #3
  store i32 -1, ptr %2, align 4, !tbaa !4
  call void @llvm.lifetime.start.p0(i64 4, ptr %3) #3
  store i32 1, ptr %3, align 4, !tbaa !4
  call void @llvm.lifetime.start.p0(i64 8, ptr %4) #3
  store ptr @standard_exts, ptr %4, align 8, !tbaa !8
  store i64 0, ptr %1, align 8, !tbaa !11
  br label %5

5:                                                ; preds = %21, %0
  %6 = load i64, ptr %1, align 8, !tbaa !11
  %7 = icmp ult i64 %6, 73
  br i1 %7, label %8, label %26

8:                                                ; preds = %5
  %9 = load ptr, ptr %4, align 8, !tbaa !8
  %10 = load ptr, ptr %9, align 8, !tbaa !13
  %11 = getelementptr inbounds nuw %struct.v3_ext_method, ptr %10, i32 0, i32 0
  %12 = load i32, ptr %11, align 8, !tbaa !15
  %13 = load i32, ptr %2, align 4, !tbaa !4
  %14 = icmp slt i32 %12, %13
  br i1 %14, label %15, label %16

15:                                               ; preds = %8
  store i32 0, ptr %3, align 4, !tbaa !4
  br label %16

16:                                               ; preds = %15, %8
  %17 = load ptr, ptr %4, align 8, !tbaa !8
  %18 = load ptr, ptr %17, align 8, !tbaa !13
  %19 = getelementptr inbounds nuw %struct.v3_ext_method, ptr %18, i32 0, i32 0
  %20 = load i32, ptr %19, align 8, !tbaa !15
  store i32 %20, ptr %2, align 4, !tbaa !4
  br label %21

21:                                               ; preds = %16
  %22 = load i64, ptr %1, align 8, !tbaa !11
  %23 = add i64 %22, 1
  store i64 %23, ptr %1, align 8, !tbaa !11
  %24 = load ptr, ptr %4, align 8, !tbaa !8
  %25 = getelementptr inbounds nuw ptr, ptr %24, i32 1
  store ptr %25, ptr %4, align 8, !tbaa !8
  br label %5, !llvm.loop !17

26:                                               ; preds = %5
  %27 = load i32, ptr %3, align 4, !tbaa !4
  %28 = icmp ne i32 %27, 0
  br i1 %28, label %49, label %29

29:                                               ; preds = %26
  store ptr @standard_exts, ptr %4, align 8, !tbaa !8
  call void (ptr, i32, ptr, ...) @test_error(ptr noundef @.str.3, i32 noundef 44, ptr noundef @.str.4)
  store i64 0, ptr %1, align 8, !tbaa !11
  br label %30

30:                                               ; preds = %43, %29
  %31 = load i64, ptr %1, align 8, !tbaa !11
  %32 = icmp ult i64 %31, 73
  br i1 %32, label %33, label %48

33:                                               ; preds = %30
  %34 = load ptr, ptr %4, align 8, !tbaa !8
  %35 = load ptr, ptr %34, align 8, !tbaa !13
  %36 = getelementptr inbounds nuw %struct.v3_ext_method, ptr %35, i32 0, i32 0
  %37 = load i32, ptr %36, align 8, !tbaa !15
  %38 = load ptr, ptr %4, align 8, !tbaa !8
  %39 = load ptr, ptr %38, align 8, !tbaa !13
  %40 = getelementptr inbounds nuw %struct.v3_ext_method, ptr %39, i32 0, i32 0
  %41 = load i32, ptr %40, align 8, !tbaa !15
  %42 = call ptr @OBJ_nid2sn(i32 noundef %41)
  call void (ptr, ...) @test_note(ptr noundef @.str.5, i32 noundef %37, ptr noundef %42)
  br label %43

43:                                               ; preds = %33
  %44 = load i64, ptr %1, align 8, !tbaa !11
  %45 = add i64 %44, 1
  store i64 %45, ptr %1, align 8, !tbaa !11
  %46 = load ptr, ptr %4, align 8, !tbaa !8
  %47 = getelementptr inbounds nuw ptr, ptr %46, i32 1
  store ptr %47, ptr %4, align 8, !tbaa !8
  br label %30, !llvm.loop !19

48:                                               ; preds = %30
  br label %49

49:                                               ; preds = %48, %26
  %50 = load i32, ptr %3, align 4, !tbaa !4
  call void @llvm.lifetime.end.p0(i64 8, ptr %4) #3
  call void @llvm.lifetime.end.p0(i64 4, ptr %3) #3
  call void @llvm.lifetime.end.p0(i64 4, ptr %2) #3
  call void @llvm.lifetime.end.p0(i64 8, ptr %1) #3
  ret i32 %50
}