; Function Attrs: nounwind uwtable
define internal range(i32 0, 2) i32 @test_standard_exts() #0 {
  br label %1

1:                                                ; preds = %0, %1
  %.020 = phi ptr [ @standard_exts, %0 ], [ %6, %1 ]
  %.01219 = phi i32 [ 1, %0 ], [ %spec.select, %1 ]
  %.01418 = phi i32 [ -1, %0 ], [ %3, %1 ]
  %.01517 = phi i64 [ 0, %0 ], [ %5, %1 ]
  %2 = load ptr, ptr %.020, align 8, !tbaa !4
  %3 = load i32, ptr %2, align 8, !tbaa !9
  %4 = icmp slt i32 %3, %.01418
  %spec.select = select i1 %4, i32 0, i32 %.01219
  %5 = add nuw nsw i64 %.01517, 1
  %6 = getelementptr inbounds nuw i8, ptr %.020, i64 8
  %exitcond.not = icmp eq i64 %5, 73
  br i1 %exitcond.not, label %7, label %1, !llvm.loop !12

7:                                                ; preds = %1
  %.not = icmp eq i32 %spec.select, 0
  br i1 %.not, label %8, label %.loopexit

8:                                                ; preds = %7
  tail call void (ptr, i32, ptr, ...) @test_error(ptr noundef nonnull @.str.3, i32 noundef 44, ptr noundef nonnull @.str.4) #3
  br label %9

9:                                                ; preds = %8, %9
  %.122 = phi ptr [ @standard_exts, %8 ], [ %14, %9 ]
  %.11621 = phi i64 [ 0, %8 ], [ %13, %9 ]
  %10 = load ptr, ptr %.122, align 8, !tbaa !4
  %11 = load i32, ptr %10, align 8, !tbaa !9
  %12 = tail call ptr @OBJ_nid2sn(i32 noundef %11) #3
  tail call void (ptr, ...) @test_note(ptr noundef nonnull @.str.5, i32 noundef %11, ptr noundef %12) #3
  %13 = add nuw nsw i64 %.11621, 1
  %14 = getelementptr inbounds nuw i8, ptr %.122, i64 8
  %exitcond23.not = icmp eq i64 %13, 73
  br i1 %exitcond23.not, label %.loopexit, label %9, !llvm.loop !14

.loopexit:                                        ; preds = %9, %7
  ret i32 %spec.select
}